target datalayout = "e-m:e-p270:32:32-p271:32:32-p272:64:64-i64:64-i128:128-f80:128-n8:16:32:64-S128"
target triple = "x86_64-pc-linux-gnu"

%struct.H5D_chk_idx_info_t = type { ptr, ptr, ptr, ptr }
%struct.H5O_layout_chunk_t = type { i32, i8, i32, [33 x i32], i32, i32, i64, i64, [33 x i64], [33 x i64], [33 x i64], [33 x i64], %union.anon }
%union.anon = type { %struct.H5O_layout_chunk_earray_t }
%struct.H5O_layout_chunk_earray_t = type { %struct.anon.0, i32, [33 x i32], [33 x i64], [33 x i64] }
%struct.anon.0 = type { i8, i8, i8, i8, i8 }
%struct.H5O_storage_chunk_t = type { i32, i64, ptr, %union.anon.2 }
%union.anon.2 = type { %struct.H5O_storage_chunk_btree_t }
%struct.H5O_storage_chunk_btree_t = type { i64, ptr }
%struct.H5D_chunk_rec_t = type { [33 x i64], i32, i32, i64 }

@H5D_init_g = external global i8, align 1
@H5_libterm_g = external global i8, align 1
@.str = private unnamed_addr constant [101 x i8] c"generated/home/dtcxzyw/WorkSpace/Projects/compilers/llvm-opt-benchmark/bench/hdf5/hdf5/src/H5Dnone.c\00", align 1
@H5E_DATASET_g = external global i64, align 8
@__func__.H5D__none_idx_iterate = private unnamed_addr constant [22 x i8] c"H5D__none_idx_iterate\00", align 1
@H5E_CALLBACK_g = external global i64, align 8
@.str.2 = private unnamed_addr constant [43 x i8] c"failure in generic chunk iterator callback\00", align 1

; Function Attrs: nounwind uwtable
define internal i32 @H5D__none_idx_iterate(ptr noundef %0, ptr noundef %1, ptr noundef %2) #0 {
  %4 = alloca ptr, align 8
  %5 = alloca ptr, align 8
  %6 = alloca ptr, align 8
  %7 = alloca %struct.H5D_chunk_rec_t, align 8
  %8 = alloca i32, align 4
  %9 = alloca i32, align 4
  %10 = alloca i32, align 4
  %11 = alloca i64, align 8
  %12 = alloca i32, align 4
  %13 = alloca i8, align 1
  store ptr %0, ptr %4, align 8, !tbaa !3
  store ptr %1, ptr %5, align 8, !tbaa !45
  store ptr %2, ptr %6, align 8, !tbaa !45
  call void @llvm.lifetime.start.p0(i64 280, ptr %7) #6
  call void @llvm.lifetime.start.p0(i64 4, ptr %8) #6
  call void @llvm.lifetime.start.p0(i64 4, ptr %9) #6
  call void @llvm.lifetime.start.p0(i64 4, ptr %10) #6
  call void @llvm.lifetime.start.p0(i64 8, ptr %11) #6
  call void @llvm.lifetime.start.p0(i64 4, ptr %12) #6
  store i32 0, ptr %12, align 4, !tbaa !8
  call void @llvm.lifetime.start.p0(i64 1, ptr %13) #6
  store i8 0, ptr %13, align 1, !tbaa !10
  %14 = load i8, ptr @H5D_init_g, align 1, !tbaa !10, !range !12, !noundef !13
  %15 = trunc i8 %14 to i1
  br i1 %15, label %20, label %16

16:                                               ; preds = %3
  %17 = load i8, ptr @H5_libterm_g, align 1, !tbaa !10, !range !12, !noundef !13
  %18 = trunc i8 %17 to i1
  %19 = xor i1 %18, true
  br label %20

20:                                               ; preds = %16, %3
  %21 = phi i1 [ true, %3 ], [ %19, %16 ]
  %22 = xor i1 %21, true
  %23 = xor i1 %22, true
  %24 = zext i1 %23 to i32
  %25 = sext i32 %24 to i64
  %26 = call i64 @llvm.expect.i64(i64 %25, i64 1)
  %27 = icmp ne i64 %26, 0
  br i1 %27, label %28, label %146

28:                                               ; preds = %20
  call void @llvm.memset.p0.i64(ptr align 8 %7, i8 0, i64 280, i1 false)
  %29 = load ptr, ptr %4, align 8, !tbaa !3
  %30 = getelementptr inbounds nuw %struct.H5D_chk_idx_info_t, ptr %29, i32 0, i32 2
  %31 = load ptr, ptr %30, align 8, !tbaa !14
  %32 = getelementptr inbounds nuw %struct.H5O_layout_chunk_t, ptr %31, i32 0, i32 5
  %33 = load i32, ptr %32, align 4, !tbaa !23
  %34 = getelementptr inbounds nuw %struct.H5D_chunk_rec_t, ptr %7, i32 0, i32 1
  store i32 %33, ptr %34, align 8, !tbaa !46
  %35 = getelementptr inbounds nuw %struct.H5D_chunk_rec_t, ptr %7, i32 0, i32 2
  store i32 0, ptr %35, align 4, !tbaa !48
  %36 = load ptr, ptr %4, align 8, !tbaa !3
  %37 = getelementptr inbounds nuw %struct.H5D_chk_idx_info_t, ptr %36, i32 0, i32 2
  %38 = load ptr, ptr %37, align 8, !tbaa !14
  %39 = getelementptr inbounds nuw %struct.H5O_layout_chunk_t, ptr %38, i32 0, i32 2
  %40 = load i32, ptr %39, align 8, !tbaa !35
  %41 = sub i32 %40, 1
  store i32 %41, ptr %8, align 4, !tbaa !8
  store i32 0, ptr %9, align 4, !tbaa !8
  br label %42

42:                                               ; preds = %141, %28
  %43 = load i32, ptr %9, align 4, !tbaa !8
  %44 = zext i32 %43 to i64
  %45 = load ptr, ptr %4, align 8, !tbaa !3
  %46 = getelementptr inbounds nuw %struct.H5D_chk_idx_info_t, ptr %45, i32 0, i32 2
  %47 = load ptr, ptr %46, align 8, !tbaa !14
  %48 = getelementptr inbounds nuw %struct.H5O_layout_chunk_t, ptr %47, i32 0, i32 6
  %49 = load i64, ptr %48, align 8, !tbaa !49
  %50 = icmp ult i64 %44, %49
  br i1 %50, label %51, label %54

51:                                               ; preds = %42
  %52 = load i32, ptr %12, align 4, !tbaa !8
  %53 = icmp eq i32 %52, 0
  br label %54

54:                                               ; preds = %51, %42
  %55 = phi i1 [ false, %42 ], [ %53, %51 ]
  br i1 %55, label %56, label %144

56:                                               ; preds = %54
  %57 = load i32, ptr %8, align 4, !tbaa !8
  %58 = load ptr, ptr %4, align 8, !tbaa !3
  %59 = getelementptr inbounds nuw %struct.H5D_chk_idx_info_t, ptr %58, i32 0, i32 2
  %60 = load ptr, ptr %59, align 8, !tbaa !14
  %61 = getelementptr inbounds nuw %struct.H5O_layout_chunk_t, ptr %60, i32 0, i32 11
  %62 = getelementptr inbounds [33 x i64], ptr %61, i64 0, i64 0
  %63 = getelementptr inbounds nuw %struct.H5D_chunk_rec_t, ptr %7, i32 0, i32 0
  %64 = getelementptr inbounds [33 x i64], ptr %63, i64 0, i64 0
  %65 = call i64 @H5VM_array_offset_pre(i32 noundef %57, ptr noundef %62, ptr noundef %64)
  store i64 %65, ptr %11, align 8, !tbaa !24
  %66 = load ptr, ptr %4, align 8, !tbaa !3
  %67 = getelementptr inbounds nuw %struct.H5D_chk_idx_info_t, ptr %66, i32 0, i32 3
  %68 = load ptr, ptr %67, align 8, !tbaa !26
  %69 = getelementptr inbounds nuw %struct.H5O_storage_chunk_t, ptr %68, i32 0, i32 1
  %70 = load i64, ptr %69, align 8, !tbaa !27
  %71 = load i64, ptr %11, align 8, !tbaa !24
  %72 = load ptr, ptr %4, align 8, !tbaa !3
  %73 = getelementptr inbounds nuw %struct.H5D_chk_idx_info_t, ptr %72, i32 0, i32 2
  %74 = load ptr, ptr %73, align 8, !tbaa !14
  %75 = getelementptr inbounds nuw %struct.H5O_layout_chunk_t, ptr %74, i32 0, i32 5
  %76 = load i32, ptr %75, align 4, !tbaa !23
  %77 = zext i32 %76 to i64
  %78 = mul i64 %71, %77
  %79 = add i64 %70, %78
  %80 = getelementptr inbounds nuw %struct.H5D_chunk_rec_t, ptr %7, i32 0, i32 3
  store i64 %79, ptr %80, align 8, !tbaa !50
  %81 = load ptr, ptr %5, align 8, !tbaa !45
  %82 = load ptr, ptr %6, align 8, !tbaa !45
  %83 = call i32 %81(ptr noundef %7, ptr noundef %82)
  store i32 %83, ptr %12, align 4, !tbaa !8
  %84 = icmp slt i32 %83, 0
  br i1 %84, label %85, label %104

85:                                               ; preds = %56
  br label %86

86:                                               ; preds = %85
  br label %87

87:                                               ; preds = %86
  br label %88

88:                                               ; preds = %87
  %89 = load i64, ptr @H5E_DATASET_g, align 8, !tbaa !24
  %90 = load i64, ptr @H5E_CALLBACK_g, align 8, !tbaa !24
  %91 = call i32 (ptr, ptr, i32, i64, i64, ptr, ...) @H5E_printf_stack(ptr noundef @.str, ptr noundef @__func__.H5D__none_idx_iterate, i32 noundef 343, i64 noundef %89, i64 noundef %90, ptr noundef @.str.2)
  br label %92

92:                                               ; preds = %88
  br label %93

93:                                               ; preds = %92
  store i8 1, ptr %13, align 1, !tbaa !10
  %94 = load i8, ptr %13, align 1, !tbaa !10, !range !12, !noundef !13
  %95 = trunc i8 %94 to i1
  %96 = zext i1 %95 to i8
  store i8 %96, ptr %13, align 1, !tbaa !10
  br label %97

97:                                               ; preds = %93
  br label %98

98:                                               ; preds = %97
  br label %99

99:                                               ; preds = %98
  store i32 -1, ptr %12, align 4, !tbaa !8
  br label %145

100:                                              ; No predecessors!
  br label %101

101:                                              ; preds = %100
  br label %102

102:                                              ; preds = %101
  br label %103

103:                                              ; preds = %102
  br label %104

104:                                              ; preds = %103, %56
  %105 = load i32, ptr %8, align 4, !tbaa !8
  %106 = sub i32 %105, 1
  store i32 %106, ptr %10, align 4, !tbaa !8
  br label %107

107:                                              ; preds = %139, %104
  %108 = load i32, ptr %10, align 4, !tbaa !8
  %109 = icmp sge i32 %108, 0
  br i1 %109, label %110, label %140

110:                                              ; preds = %107
  %111 = getelementptr inbounds nuw %struct.H5D_chunk_rec_t, ptr %7, i32 0, i32 0
  %112 = load i32, ptr %10, align 4, !tbaa !8
  %113 = sext i32 %112 to i64
  %114 = getelementptr inbounds [33 x i64], ptr %111, i64 0, i64 %113
  %115 = load i64, ptr %114, align 8, !tbaa !24
  %116 = add i64 %115, 1
  store i64 %116, ptr %114, align 8, !tbaa !24
  %117 = getelementptr inbounds nuw %struct.H5D_chunk_rec_t, ptr %7, i32 0, i32 0
  %118 = load i32, ptr %10, align 4, !tbaa !8
  %119 = sext i32 %118 to i64
  %120 = getelementptr inbounds [33 x i64], ptr %117, i64 0, i64 %119
  %121 = load i64, ptr %120, align 8, !tbaa !24
  %122 = load ptr, ptr %4, align 8, !tbaa !3
  %123 = getelementptr inbounds nuw %struct.H5D_chk_idx_info_t, ptr %122, i32 0, i32 2
  %124 = load ptr, ptr %123, align 8, !tbaa !14
  %125 = getelementptr inbounds nuw %struct.H5O_layout_chunk_t, ptr %124, i32 0, i32 8
  %126 = load i32, ptr %10, align 4, !tbaa !8
  %127 = sext i32 %126 to i64
  %128 = getelementptr inbounds [33 x i64], ptr %125, i64 0, i64 %127
  %129 = load i64, ptr %128, align 8, !tbaa !24
  %130 = icmp uge i64 %121, %129
  br i1 %130, label %131, label %138

131:                                              ; preds = %110
  %132 = getelementptr inbounds nuw %struct.H5D_chunk_rec_t, ptr %7, i32 0, i32 0
  %133 = load i32, ptr %10, align 4, !tbaa !8
  %134 = sext i32 %133 to i64
  %135 = getelementptr inbounds [33 x i64], ptr %132, i64 0, i64 %134
  store i64 0, ptr %135, align 8, !tbaa !24
  %136 = load i32, ptr %10, align 4, !tbaa !8
  %137 = add nsw i32 %136, -1
  store i32 %137, ptr %10, align 4, !tbaa !8
  br label %139

138:                                              ; preds = %110
  br label %140

139:                                              ; preds = %131
  br label %107, !llvm.loop !51

140:                                              ; preds = %138, %107
  br label %141

141:                                              ; preds = %140
  %142 = load i32, ptr %9, align 4, !tbaa !8
  %143 = add i32 %142, 1
  store i32 %143, ptr %9, align 4, !tbaa !8
  br label %42, !llvm.loop !53

144:                                              ; preds = %54
  br label %145

145:                                              ; preds = %144, %99
  br label %146

146:                                              ; preds = %145, %20
  %147 = load i32, ptr %12, align 4, !tbaa !8
  call void @llvm.lifetime.end.p0(i64 1, ptr %13) #6
  call void @llvm.lifetime.end.p0(i64 4, ptr %12) #6
  call void @llvm.lifetime.end.p0(i64 8, ptr %11) #6
  call void @llvm.lifetime.end.p0(i64 4, ptr %10) #6
  call void @llvm.lifetime.end.p0(i64 4, ptr %9) #6
  call void @llvm.lifetime.end.p0(i64 4, ptr %8) #6
  call void @llvm.lifetime.end.p0(i64 280, ptr %7) #6
  ret i32 %147
}