; Function Attrs: nounwind uwtable
define internal range(i32 -1, -2147483648) i32 @H5D__none_idx_iterate(ptr noundef readonly captures(none) %0, ptr noundef readonly captures(none) %1, ptr noundef %2) #0 {
  %4 = alloca %struct.H5D_chunk_rec_t, align 8
  call void @llvm.lifetime.start.p0(i64 280, ptr nonnull %4) #9
  %5 = load i8, ptr @H5D_init_g, align 1, !tbaa !3, !range !7, !noundef !8
  %6 = trunc nuw i8 %5 to i1
  %7 = load i8, ptr @H5_libterm_g, align 1, !range !7
  %8 = trunc nuw i8 %7 to i1
  %9 = xor i1 %8, true
  %10 = select i1 %6, i1 true, i1 %9
  br i1 %10, label %11, label %.loopexit, !prof !9

11:                                               ; preds = %3
  call void @llvm.memset.p0.i64(ptr noundef nonnull align 8 dereferenceable(280) %4, i8 0, i64 280, i1 false)
  %12 = getelementptr inbounds nuw i8, ptr %0, i64 16
  %13 = load ptr, ptr %12, align 8, !tbaa !10
  %14 = getelementptr inbounds nuw i8, ptr %13, i64 148
  %15 = load i32, ptr %14, align 4, !tbaa !21
  %16 = getelementptr inbounds nuw i8, ptr %4, i64 264
  store i32 %15, ptr %16, align 8, !tbaa !38
  %17 = getelementptr inbounds nuw i8, ptr %13, i64 8
  %18 = load i32, ptr %17, align 8, !tbaa !28
  %.fr = freeze i32 %18
  %19 = add i32 %.fr, -1
  %20 = getelementptr inbounds nuw i8, ptr %13, i64 152
  %21 = load i64, ptr %20, align 8, !tbaa !40
  %.not = icmp eq i64 %21, 0
  br i1 %.not, label %.loopexit, label %.lr.ph30

.lr.ph30:                                         ; preds = %11
  %22 = getelementptr inbounds nuw i8, ptr %0, i64 24
  %23 = getelementptr inbounds nuw i8, ptr %4, i64 272
  %24 = add i32 %.fr, -2
  %25 = icmp sgt i32 %24, -1
  br i1 %25, label %.lr.ph30.split.us, label %.lr.ph30.split

.lr.ph30.split.us:                                ; preds = %.lr.ph30, %._crit_edge.us
  %26 = phi ptr [ %40, %._crit_edge.us ], [ %13, %.lr.ph30 ]
  %.02228.us = phi i32 [ %52, %._crit_edge.us ], [ 0, %.lr.ph30 ]
  %27 = getelementptr inbounds nuw i8, ptr %26, i64 960
  %28 = call i64 @H5VM_array_offset_pre(i32 noundef %19, ptr noundef nonnull %27, ptr noundef nonnull %4) #9
  %29 = load ptr, ptr %22, align 8, !tbaa !24
  %30 = getelementptr inbounds nuw i8, ptr %29, i64 8
  %31 = load i64, ptr %30, align 8, !tbaa !25
  %32 = load ptr, ptr %12, align 8, !tbaa !10
  %33 = getelementptr inbounds nuw i8, ptr %32, i64 148
  %34 = load i32, ptr %33, align 4, !tbaa !21
  %35 = zext i32 %34 to i64
  %36 = mul i64 %28, %35
  %37 = add i64 %36, %31
  store i64 %37, ptr %23, align 8, !tbaa !41
  %38 = call i32 %1(ptr noundef nonnull %4, ptr noundef %2) #9
  %39 = icmp slt i32 %38, 0
  br i1 %39, label %.split.us, label %.lr.ph.us

.lr.ph.us:                                        ; preds = %.lr.ph30.split.us
  %40 = load ptr, ptr %12, align 8, !tbaa !10
  %41 = getelementptr inbounds nuw i8, ptr %40, i64 168
  br label %42

42:                                               ; preds = %.lr.ph.us, %49
  %.02326.us = phi i32 [ %24, %.lr.ph.us ], [ %50, %49 ]
  %43 = zext nneg i32 %.02326.us to i64
  %44 = getelementptr inbounds nuw [33 x i64], ptr %4, i64 0, i64 %43
  %45 = load i64, ptr %44, align 8, !tbaa !23
  %46 = add i64 %45, 1
  store i64 %46, ptr %44, align 8, !tbaa !23
  %47 = getelementptr inbounds nuw [33 x i64], ptr %41, i64 0, i64 %43
  %48 = load i64, ptr %47, align 8, !tbaa !23
  %.not.us = icmp ult i64 %46, %48
  br i1 %.not.us, label %._crit_edge.us, label %49

49:                                               ; preds = %42
  store i64 0, ptr %44, align 8, !tbaa !23
  %50 = add nsw i32 %.02326.us, -1
  %51 = icmp sgt i32 %.02326.us, 0
  br i1 %51, label %42, label %._crit_edge.us, !llvm.loop !42

._crit_edge.us:                                   ; preds = %42, %49
  %52 = add i32 %.02228.us, 1
  %53 = zext i32 %52 to i64
  %54 = getelementptr inbounds nuw i8, ptr %40, i64 152
  %55 = load i64, ptr %54, align 8, !tbaa !40
  %56 = icmp ugt i64 %55, %53
  %57 = icmp eq i32 %38, 0
  %58 = and i1 %57, %56
  br i1 %58, label %.lr.ph30.split.us, label %.loopexit, !llvm.loop !44

.lr.ph30.split:                                   ; preds = %.lr.ph30, %76
  %59 = phi ptr [ %79, %76 ], [ %13, %.lr.ph30 ]
  %.02228 = phi i32 [ %77, %76 ], [ 0, %.lr.ph30 ]
  %60 = getelementptr inbounds nuw i8, ptr %59, i64 960
  %61 = call i64 @H5VM_array_offset_pre(i32 noundef %19, ptr noundef nonnull %60, ptr noundef nonnull %4) #9
  %62 = load ptr, ptr %22, align 8, !tbaa !24
  %63 = getelementptr inbounds nuw i8, ptr %62, i64 8
  %64 = load i64, ptr %63, align 8, !tbaa !25
  %65 = load ptr, ptr %12, align 8, !tbaa !10
  %66 = getelementptr inbounds nuw i8, ptr %65, i64 148
  %67 = load i32, ptr %66, align 4, !tbaa !21
  %68 = zext i32 %67 to i64
  %69 = mul i64 %61, %68
  %70 = add i64 %69, %64
  store i64 %70, ptr %23, align 8, !tbaa !41
  %71 = call i32 %1(ptr noundef nonnull %4, ptr noundef %2) #9
  %72 = icmp slt i32 %71, 0
  br i1 %72, label %.split.us, label %76

.split.us:                                        ; preds = %.lr.ph30.split, %.lr.ph30.split.us
  %73 = load i64, ptr @H5E_DATASET_g, align 8, !tbaa !23
  %74 = load i64, ptr @H5E_CALLBACK_g, align 8, !tbaa !23
  %75 = call i32 (ptr, ptr, i32, i64, i64, ptr, ...) @H5E_printf_stack(ptr noundef nonnull @.str, ptr noundef nonnull @__func__.H5D__none_idx_iterate, i32 noundef 343, i64 noundef %73, i64 noundef %74, ptr noundef nonnull @.str.2) #9
  br label %.loopexit

76:                                               ; preds = %.lr.ph30.split
  %77 = add i32 %.02228, 1
  %78 = zext i32 %77 to i64
  %79 = load ptr, ptr %12, align 8, !tbaa !10
  %80 = getelementptr inbounds nuw i8, ptr %79, i64 152
  %81 = load i64, ptr %80, align 8, !tbaa !40
  %82 = icmp ugt i64 %81, %78
  %83 = icmp eq i32 %71, 0
  %84 = and i1 %83, %82
  br i1 %84, label %.lr.ph30.split, label %.loopexit, !llvm.loop !44

.loopexit:                                        ; preds = %76, %._crit_edge.us, %11, %.split.us, %3
  %.0 = phi i32 [ -1, %.split.us ], [ 0, %3 ], [ 0, %11 ], [ %38, %._crit_edge.us ], [ %71, %76 ]
  call void @llvm.lifetime.end.p0(i64 280, ptr nonnull %4) #9
  ret i32 %.0
}